; ModuleID = '29/1501.c'
source_filename = "29/1501.c"
target datalayout = "e-m:e-p270:32:32-p271:32:32-p272:64:64-i64:64-f80:128-n8:16:32:64-S128"
target triple = "x86_64-pc-linux-gnu"

@.str = private unnamed_addr constant [3 x i8] c"%d\00", align 1
@.str.1 = private unnamed_addr constant [7 x i8] c"2.000\0A\00", align 1
@.str.2 = private unnamed_addr constant [6 x i8] c"%.3f\0A\00", align 1

; Function Attrs: noinline nounwind uwtable
define dso_local i32 @main() #0 {
  %1 = alloca i32, align 4
  %2 = alloca i32, align 4
  %3 = alloca i32, align 4
  %4 = alloca i32, align 4
  %5 = alloca i32, align 4
  %6 = alloca double, align 8
  %7 = alloca i32, align 4
  %8 = alloca i32, align 4
  %9 = alloca double, align 8
  %10 = alloca double, align 8
  %11 = alloca i32, align 4
  %12 = alloca i32, align 4
  %13 = alloca i32, align 4
  %14 = alloca i32, align 4
  %15 = alloca i32, align 4
  %16 = alloca i32, align 4
  %17 = alloca i32, align 4
  %18 = alloca i32, align 4
  %19 = alloca i32, align 4
  %20 = alloca i32, align 4
  %21 = alloca i32, align 4
  store i32 0, i32* %1, align 4
  store i32 2, i32* %2, align 4
  store i32 1, i32* %3, align 4
  %22 = call i32 (i8*, ...) @__isoc99_scanf(i8* getelementptr inbounds ([3 x i8], [3 x i8]* @.str, i64 0, i64 0), i32* %7)
  store i32 0, i32* %21, align 4
  br label %23

23:                                               ; preds = %59, %0
  %24 = load i32, i32* %21, align 4
  %25 = load i32, i32* %7, align 4
  %26 = sub nsw i32 %25, 1
  %27 = icmp sle i32 %24, %26
  br i1 %27, label %28, label %62

28:                                               ; preds = %23
  store double 2.000000e+00, double* %9, align 8
  %29 = load double, double* %9, align 8
  store double %29, double* %10, align 8
  %30 = call i32 (i8*, ...) @__isoc99_scanf(i8* getelementptr inbounds ([3 x i8], [3 x i8]* @.str, i64 0, i64 0), i32* %8)
  %31 = load i32, i32* %8, align 4
  %32 = icmp eq i32 %31, 1
  br i1 %32, label %33, label %35

33:                                               ; preds = %28
  %34 = call i32 (i8*, ...) @printf(i8* getelementptr inbounds ([7 x i8], [7 x i8]* @.str.1, i64 0, i64 0))
  br label %52

35:                                               ; preds = %28
  store i32 0, i32* %11, align 4
  br label %36

36:                                               ; preds = %48, %35
  %37 = load i32, i32* %11, align 4
  %38 = load i32, i32* %8, align 4
  %39 = sub nsw i32 %38, 2
  %40 = icmp sle i32 %37, %39
  br i1 %40, label %41, label %51

41:                                               ; preds = %36
  %42 = load double, double* %9, align 8
  %43 = fdiv double 1.000000e+00, %42
  %44 = fadd double 1.000000e+00, %43
  store double %44, double* %9, align 8
  %45 = load double, double* %10, align 8
  %46 = load double, double* %9, align 8
  %47 = fadd double %45, %46
  store double %47, double* %10, align 8
  br label %48

48:                                               ; preds = %41
  %49 = load i32, i32* %11, align 4
  %50 = add nsw i32 %49, 1
  store i32 %50, i32* %11, align 4
  br label %36

51:                                               ; preds = %36
  br label %52

52:                                               ; preds = %51, %33
  %53 = load i32, i32* %8, align 4
  %54 = icmp ne i32 %53, 1
  br i1 %54, label %55, label %58

55:                                               ; preds = %52
  %56 = load double, double* %10, align 8
  %57 = call i32 (i8*, ...) @printf(i8* getelementptr inbounds ([6 x i8], [6 x i8]* @.str.2, i64 0, i64 0), double %56)
  br label %58

58:                                               ; preds = %55, %52
  br label %59

59:                                               ; preds = %58
  %60 = load i32, i32* %21, align 4
  %61 = add nsw i32 %60, 1
  store i32 %61, i32* %21, align 4
  br label %23

62:                                               ; preds = %23
  %63 = load i32, i32* %1, align 4
  ret i32 %63
}

declare dso_local i32 @__isoc99_scanf(i8*, ...) #1

declare dso_local i32 @printf(i8*, ...) #1


!llvm.module.flags = !{!0}
!llvm.ident = !{!1}

!0 = !{i32 1, !"wchar_size", i32 4}
!1 = !{!"clang version 10.0.0-4ubuntu1 "}
