; ModuleID = 'source-C-CXX/28/1501.c'
source_filename = "source-C-CXX/28/1501.c"
target datalayout = "e-m:e-p270:32:32-p271:32:32-p272:64:64-i64:64-f80:128-n8:16:32:64-S128"
target triple = "x86_64-pc-linux-gnu"

@.str = private unnamed_addr constant [3 x i8] c"%d\00", align 1
@.str.2 = private unnamed_addr constant [6 x i8] c"%.3f\0A\00", align 1
@str = private unnamed_addr constant [6 x i8] c"2.000\00", align 1

; Function Attrs: nofree nounwind sspstrong uwtable
define dso_local i32 @main() local_unnamed_addr #0 {
  %1 = alloca i32, align 4
  %2 = alloca i32, align 4
  %3 = bitcast i32* %1 to i8*
  call void @llvm.lifetime.start.p0i8(i64 4, i8* nonnull %3) #4
  %4 = bitcast i32* %2 to i8*
  call void @llvm.lifetime.start.p0i8(i64 4, i8* nonnull %4) #4
  %5 = call i32 (i8*, ...) @__isoc99_scanf(i8* getelementptr inbounds ([3 x i8], [3 x i8]* @.str, i64 0, i64 0), i32* nonnull %1)
  %6 = load i32, i32* %1, align 4, !tbaa !5
  %7 = icmp sgt i32 %6, 0
  br i1 %7, label %9, label %8

8:                                                ; preds = %53, %0
  call void @llvm.lifetime.end.p0i8(i64 4, i8* nonnull %4) #4
  call void @llvm.lifetime.end.p0i8(i64 4, i8* nonnull %3) #4
  ret i32 0

9:                                                ; preds = %0, %53
  %10 = phi i32 [ %54, %53 ], [ 0, %0 ]
  %11 = call i32 (i8*, ...) @__isoc99_scanf(i8* getelementptr inbounds ([3 x i8], [3 x i8]* @.str, i64 0, i64 0), i32* nonnull %2)
  %12 = load i32, i32* %2, align 4, !tbaa !5
  %13 = icmp eq i32 %12, 1
  br i1 %13, label %22, label %14

14:                                               ; preds = %9
  %15 = icmp slt i32 %12, 2
  br i1 %15, label %50, label %16

16:                                               ; preds = %14
  %17 = add i32 %12, -1
  %18 = and i32 %17, 1
  %19 = icmp eq i32 %12, 2
  br i1 %19, label %37, label %20

20:                                               ; preds = %16
  %21 = and i32 %17, -2
  br label %25

22:                                               ; preds = %9
  %23 = call i32 @puts(i8* nonnull dereferenceable(1) getelementptr inbounds ([6 x i8], [6 x i8]* @str, i64 0, i64 0))
  %24 = load i32, i32* %2, align 4, !tbaa !5
  br label %46

25:                                               ; preds = %25, %20
  %26 = phi double [ 2.000000e+00, %20 ], [ %33, %25 ]
  %27 = phi double [ 2.000000e+00, %20 ], [ %34, %25 ]
  %28 = phi i32 [ %21, %20 ], [ %35, %25 ]
  %29 = fdiv double 1.000000e+00, %26
  %30 = fadd double %29, 1.000000e+00
  %31 = fadd double %27, %30
  %32 = fdiv double 1.000000e+00, %30
  %33 = fadd double %32, 1.000000e+00
  %34 = fadd double %31, %33
  %35 = add i32 %28, -2
  %36 = icmp eq i32 %35, 0
  br i1 %36, label %37, label %25, !llvm.loop !9

37:                                               ; preds = %25, %16
  %38 = phi double [ undef, %16 ], [ %34, %25 ]
  %39 = phi double [ 2.000000e+00, %16 ], [ %33, %25 ]
  %40 = phi double [ 2.000000e+00, %16 ], [ %34, %25 ]
  %41 = icmp eq i32 %18, 0
  br i1 %41, label %46, label %42

42:                                               ; preds = %37
  %43 = fdiv double 1.000000e+00, %39
  %44 = fadd double %43, 1.000000e+00
  %45 = fadd double %40, %44
  br label %46

46:                                               ; preds = %42, %37, %22
  %47 = phi i32 [ %24, %22 ], [ %12, %37 ], [ %12, %42 ]
  %48 = phi double [ 2.000000e+00, %22 ], [ %38, %37 ], [ %45, %42 ]
  %49 = icmp eq i32 %47, 1
  br i1 %49, label %53, label %50

50:                                               ; preds = %14, %46
  %51 = phi double [ %48, %46 ], [ 2.000000e+00, %14 ]
  %52 = call i32 (i8*, ...) @printf(i8* nonnull dereferenceable(1) getelementptr inbounds ([6 x i8], [6 x i8]* @.str.2, i64 0, i64 0), double %51)
  br label %53

53:                                               ; preds = %46, %50
  %54 = add nuw nsw i32 %10, 1
  %55 = load i32, i32* %1, align 4, !tbaa !5
  %56 = icmp slt i32 %54, %55
  br i1 %56, label %9, label %8, !llvm.loop !11
}

; Function Attrs: argmemonly mustprogress nofree nosync nounwind willreturn
declare void @llvm.lifetime.start.p0i8(i64 immarg, i8* nocapture) #1

; Function Attrs: nofree nounwind
declare noundef i32 @__isoc99_scanf(i8* nocapture noundef readonly, ...) local_unnamed_addr #2

; Function Attrs: nofree nounwind
declare noundef i32 @printf(i8* nocapture noundef readonly, ...) local_unnamed_addr #2

; Function Attrs: argmemonly mustprogress nofree nosync nounwind willreturn
declare void @llvm.lifetime.end.p0i8(i64 immarg, i8* nocapture) #1

; Function Attrs: nofree nounwind
declare noundef i32 @puts(i8* nocapture noundef readonly) local_unnamed_addr #3


!llvm.module.flags = !{!0, !1, !2, !3}
!llvm.ident = !{!4}

!0 = !{i32 1, !"wchar_size", i32 4}
!1 = !{i32 7, !"PIC Level", i32 2}
!2 = !{i32 7, !"PIE Level", i32 2}
!3 = !{i32 7, !"uwtable", i32 1}
!4 = !{!"clang version 13.0.0"}
!5 = !{!6, !6, i64 0}
!6 = !{!"int", !7, i64 0}
!7 = !{!"omnipotent char", !8, i64 0}
!8 = !{!"Simple C/C++ TBAA"}
!9 = distinct !{!9, !10}
!10 = !{!"llvm.loop.mustprogress"}
!11 = distinct !{!11, !10}
